target datalayout = "e-m:e-p270:32:32-p271:32:32-p272:64:64-i64:64-i128:128-f80:128-n8:16:32:64-S128"
target triple = "x86_64-pc-linux-gnu"

; Function Attrs: nounwind uwtable
define internal i32 @ssl_bitmask_check(ptr noundef %0, i64 noundef %1) #0 {
  %3 = alloca i32, align 4
  %4 = alloca ptr, align 8
  %5 = alloca i64, align 8
  %6 = alloca i64, align 8
  %7 = alloca i32, align 4
  store ptr %0, ptr %4, align 8, !tbaa !21
  store i64 %1, ptr %5, align 8, !tbaa !22
  call void @llvm.lifetime.start.p0(i64 8, ptr %6) #11
  store i64 0, ptr %6, align 8, !tbaa !22
  br label %8

8:                                                ; preds = %22, %2
  %9 = load i64, ptr %6, align 8, !tbaa !22
  %10 = load i64, ptr %5, align 8, !tbaa !22
  %11 = udiv i64 %10, 8
  %12 = icmp ult i64 %9, %11
  br i1 %12, label %13, label %25

13:                                               ; preds = %8
  %14 = load ptr, ptr %4, align 8, !tbaa !21
  %15 = load i64, ptr %6, align 8, !tbaa !22
  %16 = getelementptr inbounds nuw i8, ptr %14, i64 %15
  %17 = load i8, ptr %16, align 1, !tbaa !38
  %18 = zext i8 %17 to i32
  %19 = icmp ne i32 %18, 255
  br i1 %19, label %20, label %21

20:                                               ; preds = %13
  store i32 -1, ptr %3, align 4
  store i32 1, ptr %7, align 4
  br label %50

21:                                               ; preds = %13
  br label %22

22:                                               ; preds = %21
  %23 = load i64, ptr %6, align 8, !tbaa !22
  %24 = add i64 %23, 1
  store i64 %24, ptr %6, align 8, !tbaa !22
  br label %8, !llvm.loop !189

25:                                               ; preds = %8
  store i64 0, ptr %6, align 8, !tbaa !22
  br label %26

26:                                               ; preds = %46, %25
  %27 = load i64, ptr %6, align 8, !tbaa !22
  %28 = load i64, ptr %5, align 8, !tbaa !22
  %29 = urem i64 %28, 8
  %30 = icmp ult i64 %27, %29
  br i1 %30, label %31, label %49

31:                                               ; preds = %26
  %32 = load ptr, ptr %4, align 8, !tbaa !21
  %33 = load i64, ptr %5, align 8, !tbaa !22
  %34 = udiv i64 %33, 8
  %35 = getelementptr inbounds nuw i8, ptr %32, i64 %34
  %36 = load i8, ptr %35, align 1, !tbaa !38
  %37 = zext i8 %36 to i32
  %38 = load i64, ptr %6, align 8, !tbaa !22
  %39 = sub i64 7, %38
  %40 = trunc i64 %39 to i32
  %41 = shl i32 1, %40
  %42 = and i32 %37, %41
  %43 = icmp eq i32 %42, 0
  br i1 %43, label %44, label %45

44:                                               ; preds = %31
  store i32 -1, ptr %3, align 4
  store i32 1, ptr %7, align 4
  br label %50

45:                                               ; preds = %31
  br label %46

46:                                               ; preds = %45
  %47 = load i64, ptr %6, align 8, !tbaa !22
  %48 = add i64 %47, 1
  store i64 %48, ptr %6, align 8, !tbaa !22
  br label %26, !llvm.loop !190

49:                                               ; preds = %26
  store i32 0, ptr %3, align 4
  store i32 1, ptr %7, align 4
  br label %50

50:                                               ; preds = %49, %44, %20
  call void @llvm.lifetime.end.p0(i64 8, ptr %6) #11
  %51 = load i32, ptr %3, align 4
  ret i32 %51
}