; Function Attrs: nofree norecurse nosync nounwind memory(argmem: read) uwtable
define internal fastcc range(i32 -1, 1) i32 @ssl_bitmask_check(ptr noundef readonly captures(none) %0, i64 noundef %1) unnamed_addr #16 {
  %3 = lshr i64 %1, 3
  %.not21 = icmp ult i64 %1, 8
  br i1 %.not21, label %.preheader, label %.lr.ph

4:                                                ; preds = %.lr.ph
  %5 = add nuw nsw i64 %.015, 1
  %exitcond.not = icmp eq i64 %5, %3
  br i1 %exitcond.not, label %.preheader, label %.lr.ph, !llvm.loop !176

.preheader:                                       ; preds = %4, %2
  %6 = and i64 %1, 7
  %.not22 = icmp eq i64 %6, 0
  br i1 %.not22, label %.loopexit, label %.lr.ph17

.lr.ph17:                                         ; preds = %.preheader
  %7 = getelementptr inbounds nuw i8, ptr %0, i64 %3
  %8 = load i8, ptr %7, align 1, !tbaa !32
  %9 = zext i8 %8 to i32
  br label %14

.lr.ph:                                           ; preds = %2, %4
  %.015 = phi i64 [ %5, %4 ], [ 0, %2 ]
  %10 = getelementptr inbounds nuw i8, ptr %0, i64 %.015
  %11 = load i8, ptr %10, align 1, !tbaa !32
  %.not = icmp eq i8 %11, -1
  br i1 %.not, label %4, label %.loopexit

12:                                               ; preds = %14
  %13 = add nuw nsw i64 %.116, 1
  %exitcond24.not = icmp eq i64 %13, %6
  br i1 %exitcond24.not, label %.loopexit, label %14, !llvm.loop !177

14:                                               ; preds = %.lr.ph17, %12
  %.116 = phi i64 [ 0, %.lr.ph17 ], [ %13, %12 ]
  %15 = trunc i64 %.116 to i32
  %16 = sub nuw nsw i32 7, %15
  %17 = shl nuw nsw i32 1, %16
  %18 = and i32 %17, %9
  %19 = icmp eq i32 %18, 0
  br i1 %19, label %.loopexit, label %12

.loopexit:                                        ; preds = %.lr.ph, %14, %12, %.preheader
  %.011 = phi i32 [ 0, %.preheader ], [ -1, %14 ], [ 0, %12 ], [ -1, %.lr.ph ]
  ret i32 %.011
}